target datalayout = "e-m:e-p270:32:32-p271:32:32-p272:64:64-i64:64-i128:128-f80:128-n8:16:32:64-S128"
target triple = "x86_64-pc-linux-gnu"

; Function Attrs: nounwind sspstrong uwtable
define internal i32 @rb_hash_update_block_callback_noinsert(ptr noundef %0, ptr noundef %1, i64 noundef %2, i32 noundef %3) #0 {
  %5 = alloca ptr, align 8
  %6 = alloca ptr, align 8
  %7 = alloca i64, align 8
  %8 = alloca i32, align 4
  store ptr %0, ptr %5, align 8, !tbaa !11
  store ptr %1, ptr %6, align 8, !tbaa !11
  store i64 %2, ptr %7, align 8, !tbaa !7
  store i32 %3, ptr %8, align 4, !tbaa !16
  %9 = load i32, ptr %8, align 4, !tbaa !16
  %10 = icmp ne i32 %9, 0
  br i1 %10, label %12, label %11

11:                                               ; preds = %4
  call void @no_new_key() #30
  unreachable

12:                                               ; preds = %4
  %13 = load ptr, ptr %5, align 8, !tbaa !11
  %14 = load ptr, ptr %6, align 8, !tbaa !11
  %15 = load i64, ptr %7, align 8, !tbaa !7
  %16 = inttoptr i64 %15 to ptr
  %17 = load i32, ptr %8, align 4, !tbaa !16
  %18 = call i32 @rb_hash_update_block_callback(ptr noundef %13, ptr noundef %14, ptr noundef %16, i32 noundef %17)
  ret i32 %18
}