; Function Attrs: nounwind sspstrong uwtable
define internal noundef i32 @rb_hash_update_block_callback_noinsert(ptr noundef captures(none) %0, ptr noundef captures(none) %1, i64 noundef %2, i32 noundef %3) #0 {
  %.not = icmp eq i32 %3, 0
  br i1 %.not, label %5, label %6

5:                                                ; preds = %4
  tail call fastcc void @no_new_key() #32
  unreachable

6:                                                ; preds = %4
  %7 = inttoptr i64 %2 to ptr
  tail call fastcc void @rb_hash_update_block_callback(ptr noundef %0, ptr noundef %1, ptr noundef %7, i32 noundef %3)
  ret i32 0
}